; Function Attrs: mustprogress uwtable
define hidden void @_ZN12mpff_manager3setER4mpffl(ptr noundef nonnull align 8 dereferenceable(89) %0, ptr noundef nonnull align 4 captures(none) dereferenceable(8) %1, i64 noundef %2) local_unnamed_addr #3 align 2 {
  %4 = icmp eq i64 %2, 0
  br i1 %4, label %5, label %40

5:                                                ; preds = %3
  %6 = load i32, ptr %1, align 4
  %.not.i.i = icmp ult i32 %6, 2
  br i1 %.not.i.i, label %_ZN12mpff_manager5resetER4mpff.exit, label %7

7:                                                ; preds = %5
  %8 = lshr i32 %6, 1
  %9 = tail call noundef zeroext i1 @_ZN6memory16is_out_of_memoryEv()
  br i1 %9, label %_ZN6id_gen7recycleEj.exit.i.i, label %10

10:                                               ; preds = %7
  %11 = getelementptr inbounds nuw i8, ptr %0, i64 32
  %12 = load ptr, ptr %11, align 8, !tbaa !3
  %13 = icmp eq ptr %12, null
  br i1 %13, label %20, label %14

14:                                               ; preds = %10
  %15 = getelementptr inbounds i8, ptr %12, i64 -4
  %16 = load i32, ptr %15, align 4, !tbaa !21
  %17 = getelementptr inbounds i8, ptr %12, i64 -8
  %18 = load i32, ptr %17, align 4, !tbaa !21
  %19 = icmp eq i32 %16, %18
  br i1 %19, label %20, label %_ZN6vectorIjLb0EjE9push_backERKj.exit.i.i.i

20:                                               ; preds = %14, %10
  tail call void @_ZN6vectorIjLb0EjE13expand_vectorEv(ptr noundef nonnull align 8 dereferenceable(8) %11)
  %.pre.i.i.i.i = load ptr, ptr %11, align 8, !tbaa !3
  %.phi.trans.insert.i.i.i.i = getelementptr inbounds i8, ptr %.pre.i.i.i.i, i64 -4
  %.pre2.i.i.i.i = load i32, ptr %.phi.trans.insert.i.i.i.i, align 4, !tbaa !21
  br label %_ZN6vectorIjLb0EjE9push_backERKj.exit.i.i.i

_ZN6vectorIjLb0EjE9push_backERKj.exit.i.i.i:      ; preds = %20, %14
  %21 = phi i32 [ %.pre2.i.i.i.i, %20 ], [ %16, %14 ]
  %22 = phi ptr [ %.pre.i.i.i.i, %20 ], [ %12, %14 ]
  %23 = getelementptr inbounds i8, ptr %22, i64 -4
  %24 = zext i32 %21 to i64
  %25 = getelementptr inbounds nuw i32, ptr %22, i64 %24
  store i32 %8, ptr %25, align 4, !tbaa !21
  %26 = add i32 %21, 1
  store i32 %26, ptr %23, align 4, !tbaa !21
  br label %_ZN6id_gen7recycleEj.exit.i.i

_ZN6id_gen7recycleEj.exit.i.i:                    ; preds = %_ZN6vectorIjLb0EjE9push_backERKj.exit.i.i.i, %7
  %27 = getelementptr inbounds nuw i8, ptr %0, i64 8
  %28 = load ptr, ptr %27, align 8, !tbaa !3
  %29 = load i32, ptr %1, align 4
  %30 = lshr i32 %29, 1
  %31 = load i32, ptr %0, align 8, !tbaa !13
  %32 = mul i32 %30, %31
  %33 = zext i32 %32 to i64
  %34 = getelementptr inbounds nuw i32, ptr %28, i64 %33
  %.not10.i.i = icmp eq i32 %31, 0
  br i1 %.not10.i.i, label %_ZN12mpff_manager5resetER4mpff.exit, label %.lr.ph.i.i

.lr.ph.i.i:                                       ; preds = %_ZN6id_gen7recycleEj.exit.i.i, %.lr.ph.i.i
  %indvars.iv.i.i = phi i64 [ %indvars.iv.next.i.i, %.lr.ph.i.i ], [ 0, %_ZN6id_gen7recycleEj.exit.i.i ]
  %35 = getelementptr inbounds nuw i32, ptr %34, i64 %indvars.iv.i.i
  store i32 0, ptr %35, align 4, !tbaa !21
  %indvars.iv.next.i.i = add nuw nsw i64 %indvars.iv.i.i, 1
  %36 = load i32, ptr %0, align 8, !tbaa !13
  %37 = zext i32 %36 to i64
  %38 = icmp samesign ult i64 %indvars.iv.next.i.i, %37
  br i1 %38, label %.lr.ph.i.i, label %_ZN12mpff_manager5resetER4mpff.exit, !llvm.loop !37

_ZN12mpff_manager5resetER4mpff.exit:              ; preds = %.lr.ph.i.i, %5, %_ZN6id_gen7recycleEj.exit.i.i
  store i32 0, ptr %1, align 4
  %39 = getelementptr inbounds nuw i8, ptr %1, i64 4
  store i32 0, ptr %39, align 4, !tbaa !35
  br label %47

40:                                               ; preds = %3
  %41 = icmp slt i64 %2, 0
  br i1 %41, label %42, label %46

42:                                               ; preds = %40
  %43 = sub i64 0, %2
  tail call void @_ZN12mpff_manager3setER4mpffm(ptr noundef nonnull align 8 dereferenceable(89) %0, ptr noundef nonnull align 4 dereferenceable(8) %1, i64 noundef %43)
  %44 = load i32, ptr %1, align 4
  %45 = or i32 %44, 1
  store i32 %45, ptr %1, align 4
  br label %47

46:                                               ; preds = %40
  tail call void @_ZN12mpff_manager3setER4mpffm(ptr noundef nonnull align 8 dereferenceable(89) %0, ptr noundef nonnull align 4 dereferenceable(8) %1, i64 noundef %2)
  br label %47

47:                                               ; preds = %42, %46, %_ZN12mpff_manager5resetER4mpff.exit
  ret void
}